target datalayout = "e-m:e-p270:32:32-p271:32:32-p272:64:64-i64:64-i128:128-f80:128-n8:16:32:64-S128"
target triple = "x86_64-pc-linux-gnu"

%struct.IndexTupleData = type { %struct.ItemPointerData, i16 }
%struct.ItemPointerData = type { %struct.BlockIdData, i16 }
%struct.BlockIdData = type { i16, i16 }

; Function Attrs: inlinehint nounwind uwtable
define internal i64 @IndexTupleSize(ptr noundef %0) #2 {
  %2 = alloca ptr, align 8
  store ptr %0, ptr %2, align 8
  %3 = load ptr, ptr %2, align 8
  %4 = getelementptr inbounds nuw %struct.IndexTupleData, ptr %3, i32 0, i32 1
  %5 = load i16, ptr %4, align 2
  %6 = zext i16 %5 to i32
  %7 = and i32 %6, 8191
  %8 = sext i32 %7 to i64
  ret i64 %8
}

; Function Attrs: nounwind uwtable
define dso_local ptr @gistfillitupvec(ptr noundef %0, i32 noundef %1, ptr noundef %2) #0 {
  %4 = alloca ptr, align 8
  %5 = alloca i32, align 4
  %6 = alloca ptr, align 8
  %7 = alloca ptr, align 8
  %8 = alloca ptr, align 8
  %9 = alloca i32, align 4
  store ptr %0, ptr %4, align 8
  store i32 %1, ptr %5, align 4
  store ptr %2, ptr %6, align 8
  call void @llvm.lifetime.start.p0(i64 8, ptr %7) #8
  call void @llvm.lifetime.start.p0(i64 8, ptr %8) #8
  call void @llvm.lifetime.start.p0(i64 4, ptr %9) #8
  %10 = load ptr, ptr %6, align 8
  store i32 0, ptr %10, align 4
  store i32 0, ptr %9, align 4
  br label %11

11:                                               ; preds = %27, %3
  %12 = load i32, ptr %9, align 4
  %13 = load i32, ptr %5, align 4
  %14 = icmp slt i32 %12, %13
  br i1 %14, label %15, label %30

15:                                               ; preds = %11
  %16 = load ptr, ptr %4, align 8
  %17 = load i32, ptr %9, align 4
  %18 = sext i32 %17 to i64
  %19 = getelementptr inbounds ptr, ptr %16, i64 %18
  %20 = load ptr, ptr %19, align 8
  %21 = call i64 @IndexTupleSize(ptr noundef %20)
  %22 = load ptr, ptr %6, align 8
  %23 = load i32, ptr %22, align 4
  %24 = sext i32 %23 to i64
  %25 = add i64 %24, %21
  %26 = trunc i64 %25 to i32
  store i32 %26, ptr %22, align 4
  br label %27

27:                                               ; preds = %15
  %28 = load i32, ptr %9, align 4
  %29 = add i32 %28, 1
  store i32 %29, ptr %9, align 4
  br label %11, !llvm.loop !9

30:                                               ; preds = %11
  %31 = load ptr, ptr %6, align 8
  %32 = load i32, ptr %31, align 4
  %33 = sext i32 %32 to i64
  %34 = call ptr @palloc(i64 noundef %33)
  store ptr %34, ptr %8, align 8
  store ptr %34, ptr %7, align 8
  store i32 0, ptr %9, align 4
  br label %35

35:                                               ; preds = %60, %30
  %36 = load i32, ptr %9, align 4
  %37 = load i32, ptr %5, align 4
  %38 = icmp slt i32 %36, %37
  br i1 %38, label %39, label %63

39:                                               ; preds = %35
  %40 = load ptr, ptr %7, align 8
  %41 = load ptr, ptr %4, align 8
  %42 = load i32, ptr %9, align 4
  %43 = sext i32 %42 to i64
  %44 = getelementptr inbounds ptr, ptr %41, i64 %43
  %45 = load ptr, ptr %44, align 8
  %46 = load ptr, ptr %4, align 8
  %47 = load i32, ptr %9, align 4
  %48 = sext i32 %47 to i64
  %49 = getelementptr inbounds ptr, ptr %46, i64 %48
  %50 = load ptr, ptr %49, align 8
  %51 = call i64 @IndexTupleSize(ptr noundef %50)
  call void @llvm.memcpy.p0.p0.i64(ptr align 1 %40, ptr align 2 %45, i64 %51, i1 false)
  %52 = load ptr, ptr %4, align 8
  %53 = load i32, ptr %9, align 4
  %54 = sext i32 %53 to i64
  %55 = getelementptr inbounds ptr, ptr %52, i64 %54
  %56 = load ptr, ptr %55, align 8
  %57 = call i64 @IndexTupleSize(ptr noundef %56)
  %58 = load ptr, ptr %7, align 8
  %59 = getelementptr inbounds nuw i8, ptr %58, i64 %57
  store ptr %59, ptr %7, align 8
  br label %60

60:                                               ; preds = %39
  %61 = load i32, ptr %9, align 4
  %62 = add i32 %61, 1
  store i32 %62, ptr %9, align 4
  br label %35, !llvm.loop !10

63:                                               ; preds = %35
  %64 = load ptr, ptr %8, align 8
  call void @llvm.lifetime.end.p0(i64 4, ptr %9) #8
  call void @llvm.lifetime.end.p0(i64 8, ptr %8) #8
  call void @llvm.lifetime.end.p0(i64 8, ptr %7) #8
  ret ptr %64
}