; Function Attrs: nounwind uwtable
define dso_local ptr @gistfillitupvec(ptr noundef readonly captures(none) %0, i32 noundef %1, ptr noundef writeonly captures(none) initializes((0, 4)) %2) local_unnamed_addr #0 {
  store i32 0, ptr %2, align 4
  %4 = icmp sgt i32 %1, 0
  br i1 %4, label %.lr.ph, label %._crit_edge.thread

._crit_edge.thread:                               ; preds = %3
  %5 = tail call ptr @palloc(i64 noundef 0) #11
  br label %._crit_edge28

.lr.ph:                                           ; preds = %3
  %wide.trip.count = zext nneg i32 %1 to i64
  br label %6

6:                                                ; preds = %.lr.ph, %6
  %indvars.iv = phi i64 [ 0, %.lr.ph ], [ %indvars.iv.next, %6 ]
  %7 = phi i32 [ 0, %.lr.ph ], [ %13, %6 ]
  %8 = getelementptr inbounds nuw ptr, ptr %0, i64 %indvars.iv
  %9 = load ptr, ptr %8, align 8
  %10 = getelementptr i8, ptr %9, i64 6
  %.val22 = load i16, ptr %10, align 2
  %11 = and i16 %.val22, 8191
  %12 = zext nneg i16 %11 to i32
  %13 = add i32 %7, %12
  store i32 %13, ptr %2, align 4
  %indvars.iv.next = add nuw nsw i64 %indvars.iv, 1
  %exitcond.not = icmp eq i64 %indvars.iv.next, %wide.trip.count
  br i1 %exitcond.not, label %._crit_edge, label %6, !llvm.loop !9

._crit_edge:                                      ; preds = %6
  %14 = sext i32 %13 to i64
  %15 = tail call ptr @palloc(i64 noundef %14) #11
  %wide.trip.count33 = zext nneg i32 %1 to i64
  br label %.lr.ph27

.lr.ph27:                                         ; preds = %._crit_edge, %.lr.ph27
  %indvars.iv30 = phi i64 [ 0, %._crit_edge ], [ %indvars.iv.next31, %.lr.ph27 ]
  %.01924 = phi ptr [ %15, %._crit_edge ], [ %25, %.lr.ph27 ]
  %16 = getelementptr inbounds nuw ptr, ptr %0, i64 %indvars.iv30
  %17 = load ptr, ptr %16, align 8
  %18 = getelementptr i8, ptr %17, i64 6
  %.val21 = load i16, ptr %18, align 2
  %19 = and i16 %.val21, 8191
  %20 = zext nneg i16 %19 to i64
  tail call void @llvm.memcpy.p0.p0.i64(ptr align 1 %.01924, ptr align 2 %17, i64 %20, i1 false)
  %21 = load ptr, ptr %16, align 8
  %22 = getelementptr i8, ptr %21, i64 6
  %.val = load i16, ptr %22, align 2
  %23 = and i16 %.val, 8191
  %24 = zext nneg i16 %23 to i64
  %25 = getelementptr inbounds nuw i8, ptr %.01924, i64 %24
  %indvars.iv.next31 = add nuw nsw i64 %indvars.iv30, 1
  %exitcond34.not = icmp eq i64 %indvars.iv.next31, %wide.trip.count33
  br i1 %exitcond34.not, label %._crit_edge28, label %.lr.ph27, !llvm.loop !10

._crit_edge28:                                    ; preds = %.lr.ph27, %._crit_edge.thread
  %26 = phi ptr [ %5, %._crit_edge.thread ], [ %15, %.lr.ph27 ]
  ret ptr %26
}